target datalayout = "e-m:e-p270:32:32-p271:32:32-p272:64:64-i64:64-i128:128-f80:128-n8:16:32:64-S128"
target triple = "x86_64-pc-linux-gnu"

%struct.__va_list_tag = type { i32, i32, ptr, ptr }
%struct.gc_raise_tag = type { i64, ptr, ptr }

@stderr = external global ptr, align 8
@.str.81 = private unnamed_addr constant [3 x i8] c"%s\00", align 1
@.str.82 = private unnamed_addr constant [9 x i8] c"[FATAL] \00", align 1

; Function Attrs: alwaysinline
define internal i32 @vfprintf.inline(ptr noalias %0, ptr noalias %1, ptr %2) #33 {
  %4 = alloca ptr, align 8
  %5 = alloca ptr, align 8
  %6 = alloca ptr, align 8
  store ptr %0, ptr %4, align 8, !tbaa !438
  store ptr %1, ptr %5, align 8, !tbaa !14
  store ptr %2, ptr %6, align 8, !tbaa !455
  %7 = load ptr, ptr %4, align 8, !tbaa !438
  %8 = load ptr, ptr %5, align 8, !tbaa !14
  %9 = load ptr, ptr %6, align 8, !tbaa !455
  %10 = call i32 @__vfprintf_chk(ptr noundef %7, i32 noundef 1, ptr noundef %8, ptr noundef %9)
  ret i32 %10
}

; Function Attrs: noreturn nounwind sspstrong uwtable
define internal void @gc_raise(i64 noundef %0, ptr noundef %1, ...) #25 {
  %3 = alloca i64, align 8
  %4 = alloca ptr, align 8
  %5 = alloca [1 x %struct.__va_list_tag], align 16
  %6 = alloca %struct.gc_raise_tag, align 8
  store i64 %0, ptr %3, align 8, !tbaa !18
  store ptr %1, ptr %4, align 8, !tbaa !14
  call void @llvm.lifetime.start.p0(i64 24, ptr %5) #6
  %7 = getelementptr inbounds [1 x %struct.__va_list_tag], ptr %5, i64 0, i64 0
  call void @llvm.va_start.p0(ptr %7)
  call void @llvm.lifetime.start.p0(i64 24, ptr %6) #6
  %8 = getelementptr inbounds nuw %struct.gc_raise_tag, ptr %6, i32 0, i32 0
  %9 = load i64, ptr %3, align 8, !tbaa !18
  store i64 %9, ptr %8, align 8, !tbaa !448
  %10 = getelementptr inbounds nuw %struct.gc_raise_tag, ptr %6, i32 0, i32 1
  %11 = load ptr, ptr %4, align 8, !tbaa !14
  store ptr %11, ptr %10, align 8, !tbaa !451
  %12 = getelementptr inbounds nuw %struct.gc_raise_tag, ptr %6, i32 0, i32 2
  store ptr %5, ptr %12, align 8, !tbaa !452
  %13 = call i32 @ruby_thread_has_gvl_p()
  %14 = icmp ne i32 %13, 0
  br i1 %14, label %15, label %17

15:                                               ; preds = %2
  %16 = call ptr @gc_vraise(ptr noundef %6)
  unreachable

17:                                               ; preds = %2
  %18 = call i32 @ruby_native_thread_p()
  %19 = icmp ne i32 %18, 0
  br i1 %19, label %20, label %22

20:                                               ; preds = %17
  %21 = call ptr @rb_thread_call_with_gvl(ptr noundef @gc_vraise, ptr noundef %6)
  unreachable

22:                                               ; preds = %17
  %23 = load ptr, ptr @stderr, align 8, !tbaa !438
  %24 = call i32 (ptr, i32, ptr, ...) @__fprintf_chk(ptr noundef %23, i32 noundef 1, ptr noundef @.str.81, ptr noundef @.str.82)
  %25 = load ptr, ptr @stderr, align 8, !tbaa !438
  %26 = load ptr, ptr %4, align 8, !tbaa !14
  %27 = getelementptr inbounds [1 x %struct.__va_list_tag], ptr %5, i64 0, i64 0
  %28 = call i32 @vfprintf.inline(ptr noundef %25, ptr noundef %26, ptr noundef %27) #6
  br label %29

29:                                               ; preds = %22
  br label %30

30:                                               ; preds = %29
  %31 = getelementptr inbounds [1 x %struct.__va_list_tag], ptr %5, i64 0, i64 0
  call void @llvm.va_end.p0(ptr %31)
  call void @abort() #41
  unreachable
}