; Function Attrs: noreturn nounwind sspstrong uwtable
define internal void @gc_raise(i64 noundef %0, ptr noundef %1, ...) unnamed_addr #32 {
  %3 = alloca [1 x %struct.__va_list_tag], align 16
  %4 = alloca %struct.gc_raise_tag, align 8
  call void @llvm.lifetime.start.p0(i64 24, ptr nonnull %3) #7
  call void @llvm.va_start.p0(ptr nonnull %3)
  call void @llvm.lifetime.start.p0(i64 24, ptr nonnull %4) #7
  store i64 %0, ptr %4, align 8, !tbaa !475
  %5 = getelementptr inbounds nuw i8, ptr %4, i64 8
  store ptr %1, ptr %5, align 8, !tbaa !478
  %6 = getelementptr inbounds nuw i8, ptr %4, i64 16
  store ptr %3, ptr %6, align 8, !tbaa !479
  %7 = call i32 @ruby_thread_has_gvl_p() #7
  %.not = icmp eq i32 %7, 0
  br i1 %.not, label %10, label %8

8:                                                ; preds = %2
  %9 = call ptr @gc_vraise(ptr noundef nonnull %4)
  unreachable

10:                                               ; preds = %2
  %11 = call i32 @ruby_native_thread_p() #7
  %.not2 = icmp eq i32 %11, 0
  br i1 %.not2, label %14, label %12

12:                                               ; preds = %10
  %13 = call ptr @rb_thread_call_with_gvl(ptr noundef nonnull @gc_vraise, ptr noundef nonnull %4) #7
  unreachable

14:                                               ; preds = %10
  %15 = load ptr, ptr @stderr, align 8, !tbaa !465
  %16 = call i32 (ptr, i32, ptr, ...) @__fprintf_chk(ptr noundef %15, i32 noundef 1, ptr noundef nonnull @.str.81, ptr noundef nonnull @.str.82) #7
  %17 = load ptr, ptr @stderr, align 8, !tbaa !465
  %18 = call i32 @__vfprintf_chk(ptr noundef %17, i32 noundef 1, ptr noundef %1, ptr noundef nonnull %3) #7
  call void @llvm.va_end.p0(ptr nonnull %3)
  call void @abort() #55
  unreachable
}